target datalayout = "e-m:e-p270:32:32-p271:32:32-p272:64:64-i64:64-i128:128-f80:128-n8:16:32:64-S128"
target triple = "x86_64-pc-linux-gnu"

%struct._object = type { %union.anon, ptr }
%union.anon = type { i64 }
%struct._typeobject = type { %struct.PyVarObject, ptr, i64, i64, ptr, i64, ptr, ptr, ptr, ptr, ptr, ptr, ptr, ptr, ptr, ptr, ptr, ptr, ptr, i64, ptr, ptr, ptr, ptr, i64, ptr, ptr, ptr, ptr, ptr, ptr, ptr, ptr, ptr, i64, ptr, ptr, ptr, ptr, ptr, ptr, ptr, ptr, ptr, ptr, ptr, i32, ptr, ptr, i8, i16 }
%struct.PyVarObject = type { %struct._object, i64 }
%struct.module_state = type { ptr }
%struct.anon = type { i32, i32 }
%struct._PyInterpreterFrame = type { %union._PyStackRef, ptr, %union._PyStackRef, ptr, ptr, ptr, ptr, ptr, ptr, i16, i8, i8, [1 x %union._PyStackRef] }
%union._PyStackRef = type { i64 }
%struct.PyFunctionObject = type { %struct._object, ptr, ptr, ptr, ptr, ptr, ptr, ptr, ptr, ptr, ptr, ptr, ptr, ptr, ptr, ptr, ptr, i32 }

@.str = private unnamed_addr constant [18 x i8] c"_testinternalcapi\00", align 1
@_Py_NoneStruct = external global %struct._object, align 8
@.str.80 = private unnamed_addr constant [39 x i8] c"../cpython/Modules/_testinternalcapi.c\00", align 1
@.str.151 = private unnamed_addr constant [12 x i8] c"mod != NULL\00", align 1
@__PRETTY_FUNCTION__.get_module_state = private unnamed_addr constant [43 x i8] c"module_state *get_module_state(PyObject *)\00", align 1
@.str.152 = private unnamed_addr constant [14 x i8] c"state != NULL\00", align 1
@.str.154 = private unnamed_addr constant [15 x i8] c"module != NULL\00", align 1
@__PRETTY_FUNCTION__.record_eval = private unnamed_addr constant [74 x i8] c"PyObject *record_eval(PyThreadState *, struct _PyInterpreterFrame *, int)\00", align 1
@PyFunction_Type = external global %struct._typeobject, align 8
@.str.155 = private unnamed_addr constant [23 x i8] c"PyFunction_Check(func)\00", align 1
@.str.156 = private unnamed_addr constant [43 x i8] c"../cpython/Include/internal/pycore_frame.h\00", align 1
@__PRETTY_FUNCTION__._PyFrame_GetFunction = private unnamed_addr constant [62 x i8] c"PyFunctionObject *_PyFrame_GetFunction(_PyInterpreterFrame *)\00", align 1
@.str.157 = private unnamed_addr constant [15 x i8] c"mod != Py_None\00", align 1
@__PRETTY_FUNCTION__._get_current_module = private unnamed_addr constant [36 x i8] c"PyObject *_get_current_module(void)\00", align 1

; Function Attrs: inlinehint nounwind uwtable
define internal ptr @_Py_TYPE(ptr noundef %0) #3 {
  %2 = alloca ptr, align 8
  store ptr %0, ptr %2, align 8, !tbaa !3
  %3 = load ptr, ptr %2, align 8, !tbaa !3
  %4 = getelementptr inbounds nuw %struct._object, ptr %3, i32 0, i32 1
  %5 = load ptr, ptr %4, align 8, !tbaa !255
  ret ptr %5
}

; Function Attrs: alwaysinline nounwind uwtable
define internal i32 @_Py_IsImmortal(ptr noundef %0) #6 {
  %2 = alloca ptr, align 8
  store ptr %0, ptr %2, align 8, !tbaa !3
  %3 = load ptr, ptr %2, align 8, !tbaa !3
  %4 = getelementptr inbounds nuw %struct._object, ptr %3, i32 0, i32 0
  %5 = getelementptr inbounds nuw %struct.anon, ptr %4, i32 0, i32 0
  %6 = load i32, ptr %5, align 8, !tbaa !34
  %7 = icmp slt i32 %6, 0
  %8 = zext i1 %7 to i32
  ret i32 %8
}

; Function Attrs: inlinehint nounwind uwtable
define internal i32 @Py_IS_TYPE(ptr noundef %0, ptr noundef %1) #3 {
  %3 = alloca ptr, align 8
  %4 = alloca ptr, align 8
  store ptr %0, ptr %3, align 8, !tbaa !3
  store ptr %1, ptr %4, align 8, !tbaa !145
  %5 = load ptr, ptr %3, align 8, !tbaa !3
  %6 = call ptr @_Py_TYPE(ptr noundef %5)
  %7 = load ptr, ptr %4, align 8, !tbaa !145
  %8 = icmp eq ptr %6, %7
  %9 = zext i1 %8 to i32
  ret i32 %9
}

; Function Attrs: alwaysinline nounwind uwtable
define internal void @Py_DECREF(ptr noundef %0) #6 {
  %2 = alloca ptr, align 8
  store ptr %0, ptr %2, align 8, !tbaa !3
  %3 = load ptr, ptr %2, align 8, !tbaa !3
  %4 = call i32 @_Py_IsImmortal(ptr noundef %3)
  %5 = icmp ne i32 %4, 0
  br i1 %5, label %6, label %7

6:                                                ; preds = %1
  br label %16

7:                                                ; preds = %1
  %8 = load ptr, ptr %2, align 8, !tbaa !3
  %9 = getelementptr inbounds nuw %struct._object, ptr %8, i32 0, i32 0
  %10 = getelementptr inbounds nuw %struct.anon, ptr %9, i32 0, i32 0
  %11 = load i32, ptr %10, align 8, !tbaa !34
  %12 = add i32 %11, -1
  store i32 %12, ptr %10, align 8, !tbaa !34
  %13 = icmp eq i32 %12, 0
  br i1 %13, label %14, label %16

14:                                               ; preds = %7
  %15 = load ptr, ptr %2, align 8, !tbaa !3
  call void @_Py_Dealloc(ptr noundef %15)
  br label %16

16:                                               ; preds = %6, %14, %7
  ret void
}

; Function Attrs: inlinehint nounwind uwtable
define internal ptr @get_module_state(ptr noundef %0) #3 {
  %2 = alloca ptr, align 8
  %3 = alloca ptr, align 8
  store ptr %0, ptr %2, align 8, !tbaa !3
  %4 = load ptr, ptr %2, align 8, !tbaa !3
  %5 = icmp ne ptr %4, null
  br i1 %5, label %6, label %7

6:                                                ; preds = %1
  br label %9

7:                                                ; preds = %1
  call void @__assert_fail(ptr noundef @.str.151, ptr noundef @.str.80, i32 noundef 71, ptr noundef @__PRETTY_FUNCTION__.get_module_state) #11
  unreachable

8:                                                ; No predecessors!
  br label %9

9:                                                ; preds = %8, %6
  call void @llvm.lifetime.start.p0(i64 8, ptr %3) #10
  %10 = load ptr, ptr %2, align 8, !tbaa !3
  %11 = call ptr @PyModule_GetState(ptr noundef %10)
  store ptr %11, ptr %3, align 8, !tbaa !8
  %12 = load ptr, ptr %3, align 8, !tbaa !8
  %13 = icmp ne ptr %12, null
  br i1 %13, label %14, label %15

14:                                               ; preds = %9
  br label %17

15:                                               ; preds = %9
  call void @__assert_fail(ptr noundef @.str.152, ptr noundef @.str.80, i32 noundef 73, ptr noundef @__PRETTY_FUNCTION__.get_module_state) #11
  unreachable

16:                                               ; No predecessors!
  br label %17

17:                                               ; preds = %16, %14
  %18 = load ptr, ptr %3, align 8, !tbaa !8
  call void @llvm.lifetime.end.p0(i64 8, ptr %3) #10
  ret ptr %18
}

; Function Attrs: nounwind uwtable
define internal ptr @_get_current_module() #0 {
  %1 = alloca ptr, align 8
  %2 = alloca ptr, align 8
  %3 = alloca i32, align 4
  %4 = alloca ptr, align 8
  call void @llvm.lifetime.start.p0(i64 8, ptr %2) #10
  %5 = call ptr @PyUnicode_FromString(ptr noundef @.str)
  store ptr %5, ptr %2, align 8, !tbaa !3
  %6 = load ptr, ptr %2, align 8, !tbaa !3
  %7 = icmp eq ptr %6, null
  br i1 %7, label %8, label %9

8:                                                ; preds = %0
  store ptr null, ptr %1, align 8
  store i32 1, ptr %3, align 4
  br label %25

9:                                                ; preds = %0
  call void @llvm.lifetime.start.p0(i64 8, ptr %4) #10
  %10 = load ptr, ptr %2, align 8, !tbaa !3
  %11 = call ptr @PyImport_GetModule(ptr noundef %10)
  store ptr %11, ptr %4, align 8, !tbaa !3
  %12 = load ptr, ptr %2, align 8, !tbaa !3
  call void @Py_DECREF(ptr noundef %12)
  %13 = load ptr, ptr %4, align 8, !tbaa !3
  %14 = icmp eq ptr %13, null
  br i1 %14, label %15, label %16

15:                                               ; preds = %9
  store ptr null, ptr %1, align 8
  store i32 1, ptr %3, align 4
  br label %24

16:                                               ; preds = %9
  %17 = load ptr, ptr %4, align 8, !tbaa !3
  %18 = icmp ne ptr %17, @_Py_NoneStruct
  br i1 %18, label %19, label %20

19:                                               ; preds = %16
  br label %22

20:                                               ; preds = %16
  call void @__assert_fail(ptr noundef @.str.157, ptr noundef @.str.80, i32 noundef 57, ptr noundef @__PRETTY_FUNCTION__._get_current_module) #11
  unreachable

21:                                               ; No predecessors!
  br label %22

22:                                               ; preds = %21, %19
  %23 = load ptr, ptr %4, align 8, !tbaa !3
  store ptr %23, ptr %1, align 8
  store i32 1, ptr %3, align 4
  br label %24

24:                                               ; preds = %22, %15
  call void @llvm.lifetime.end.p0(i64 8, ptr %4) #10
  br label %25

25:                                               ; preds = %24, %8
  call void @llvm.lifetime.end.p0(i64 8, ptr %2) #10
  %26 = load ptr, ptr %1, align 8
  ret ptr %26
}

; Function Attrs: inlinehint nounwind uwtable
define internal ptr @_PyFrame_GetFunction(ptr noundef %0) #3 {
  %2 = alloca ptr, align 8
  %3 = alloca ptr, align 8
  store ptr %0, ptr %2, align 8, !tbaa !124
  call void @llvm.lifetime.start.p0(i64 8, ptr %3) #10
  %4 = load ptr, ptr %2, align 8, !tbaa !124
  %5 = getelementptr inbounds nuw %struct._PyInterpreterFrame, ptr %4, i32 0, i32 2
  %6 = load i64, ptr %5, align 8, !tbaa !34
  %7 = inttoptr i64 %6 to ptr
  store ptr %7, ptr %3, align 8, !tbaa !3
  %8 = load ptr, ptr %3, align 8, !tbaa !3
  %9 = call i32 @Py_IS_TYPE(ptr noundef %8, ptr noundef @PyFunction_Type)
  %10 = icmp ne i32 %9, 0
  br i1 %10, label %11, label %12

11:                                               ; preds = %1
  br label %14

12:                                               ; preds = %1
  call void @__assert_fail(ptr noundef @.str.155, ptr noundef @.str.156, i32 noundef 113, ptr noundef @__PRETTY_FUNCTION__._PyFrame_GetFunction) #11
  unreachable

13:                                               ; No predecessors!
  br label %14

14:                                               ; preds = %13, %11
  %15 = load ptr, ptr %3, align 8, !tbaa !3
  call void @llvm.lifetime.end.p0(i64 8, ptr %3) #10
  ret ptr %15
}

; Function Attrs: inlinehint nounwind uwtable
define internal zeroext i1 @PyStackRef_FunctionCheck(i64 %0) #3 {
  %2 = alloca %union._PyStackRef, align 8
  %3 = getelementptr inbounds nuw %union._PyStackRef, ptr %2, i32 0, i32 0
  store i64 %0, ptr %3, align 8
  %4 = load i64, ptr %2, align 8, !tbaa !34
  %5 = inttoptr i64 %4 to ptr
  %6 = call i32 @Py_IS_TYPE(ptr noundef %5, ptr noundef @PyFunction_Type)
  %7 = icmp ne i32 %6, 0
  ret i1 %7
}

; Function Attrs: nounwind uwtable
define internal ptr @record_eval(ptr noundef %0, ptr noundef %1, i32 noundef %2) #0 {
  %4 = alloca ptr, align 8
  %5 = alloca ptr, align 8
  %6 = alloca ptr, align 8
  %7 = alloca i32, align 4
  %8 = alloca ptr, align 8
  %9 = alloca ptr, align 8
  %10 = alloca ptr, align 8
  %11 = alloca i32, align 4
  %12 = alloca i32, align 4
  store ptr %0, ptr %5, align 8, !tbaa !9
  store ptr %1, ptr %6, align 8, !tbaa !124
  store i32 %2, ptr %7, align 4, !tbaa !26
  %13 = load ptr, ptr %6, align 8, !tbaa !124
  %14 = getelementptr inbounds nuw %struct._PyInterpreterFrame, ptr %13, i32 0, i32 2
  %15 = getelementptr inbounds nuw %union._PyStackRef, ptr %14, i32 0, i32 0
  %16 = load i64, ptr %15, align 8
  %17 = call zeroext i1 @PyStackRef_FunctionCheck(i64 %16)
  br i1 %17, label %18, label %45

18:                                               ; preds = %3
  call void @llvm.lifetime.start.p0(i64 8, ptr %8) #10
  %19 = load ptr, ptr %6, align 8, !tbaa !124
  %20 = call ptr @_PyFrame_GetFunction(ptr noundef %19)
  store ptr %20, ptr %8, align 8, !tbaa !8
  call void @llvm.lifetime.start.p0(i64 8, ptr %9) #10
  %21 = call ptr @_get_current_module()
  store ptr %21, ptr %9, align 8, !tbaa !3
  %22 = load ptr, ptr %9, align 8, !tbaa !3
  %23 = icmp ne ptr %22, null
  br i1 %23, label %24, label %25

24:                                               ; preds = %18
  br label %27

25:                                               ; preds = %18
  call void @__assert_fail(ptr noundef @.str.154, ptr noundef @.str.80, i32 noundef 651, ptr noundef @__PRETTY_FUNCTION__.record_eval) #11
  unreachable

26:                                               ; No predecessors!
  br label %27

27:                                               ; preds = %26, %24
  call void @llvm.lifetime.start.p0(i64 8, ptr %10) #10
  %28 = load ptr, ptr %9, align 8, !tbaa !3
  %29 = call ptr @get_module_state(ptr noundef %28)
  store ptr %29, ptr %10, align 8, !tbaa !8
  %30 = load ptr, ptr %9, align 8, !tbaa !3
  call void @Py_DECREF(ptr noundef %30)
  call void @llvm.lifetime.start.p0(i64 4, ptr %11) #10
  %31 = load ptr, ptr %10, align 8, !tbaa !8
  %32 = getelementptr inbounds nuw %struct.module_state, ptr %31, i32 0, i32 0
  %33 = load ptr, ptr %32, align 8, !tbaa !256
  %34 = load ptr, ptr %8, align 8, !tbaa !8
  %35 = getelementptr inbounds nuw %struct.PyFunctionObject, ptr %34, i32 0, i32 3
  %36 = load ptr, ptr %35, align 8, !tbaa !258
  %37 = call i32 @PyList_Append(ptr noundef %33, ptr noundef %36)
  store i32 %37, ptr %11, align 4, !tbaa !26
  %38 = load i32, ptr %11, align 4, !tbaa !26
  %39 = icmp slt i32 %38, 0
  br i1 %39, label %40, label %41

40:                                               ; preds = %27
  store ptr null, ptr %4, align 8
  store i32 1, ptr %12, align 4
  br label %42

41:                                               ; preds = %27
  store i32 0, ptr %12, align 4
  br label %42

42:                                               ; preds = %41, %40
  call void @llvm.lifetime.end.p0(i64 4, ptr %11) #10
  call void @llvm.lifetime.end.p0(i64 8, ptr %10) #10
  call void @llvm.lifetime.end.p0(i64 8, ptr %9) #10
  call void @llvm.lifetime.end.p0(i64 8, ptr %8) #10
  %43 = load i32, ptr %12, align 4
  switch i32 %43, label %52 [
    i32 0, label %44
    i32 1, label %50
  ]

44:                                               ; preds = %42
  br label %45

45:                                               ; preds = %44, %3
  %46 = load ptr, ptr %5, align 8, !tbaa !9
  %47 = load ptr, ptr %6, align 8, !tbaa !124
  %48 = load i32, ptr %7, align 4, !tbaa !26
  %49 = call ptr @_PyEval_EvalFrameDefault(ptr noundef %46, ptr noundef %47, i32 noundef %48)
  store ptr %49, ptr %4, align 8
  br label %50

50:                                               ; preds = %45, %42
  %51 = load ptr, ptr %4, align 8
  ret ptr %51

52:                                               ; preds = %42
  unreachable
}