; Function Attrs: nounwind uwtable
define internal ptr @record_eval(ptr noundef %0, ptr noundef %1, i32 noundef %2) #0 {
  %4 = getelementptr inbounds nuw i8, ptr %1, i64 16
  %5 = load i64, ptr %4, align 8
  %6 = inttoptr i64 %5 to ptr
  %7 = getelementptr i8, ptr %6, i64 8
  %.val.i = load ptr, ptr %7, align 8, !tbaa !46
  %8 = icmp eq ptr %.val.i, @PyFunction_Type
  br i1 %8, label %_PyFrame_GetFunction.exit, label %33

_PyFrame_GetFunction.exit:                        ; preds = %3
  %9 = tail call ptr @PyUnicode_FromString(ptr noundef nonnull @.str) #11
  %10 = icmp eq ptr %9, null
  br i1 %10, label %_get_current_module.exit.thread, label %11

11:                                               ; preds = %_PyFrame_GetFunction.exit
  %12 = tail call ptr @PyImport_GetModule(ptr noundef nonnull %9) #11
  %13 = load i32, ptr %9, align 8, !tbaa !10
  %.not.i.i = icmp sgt i32 %13, -1
  br i1 %.not.i.i, label %14, label %Py_DECREF.exit.i

14:                                               ; preds = %11
  %15 = add nsw i32 %13, -1
  store i32 %15, ptr %9, align 8, !tbaa !10
  %16 = icmp eq i32 %15, 0
  br i1 %16, label %17, label %Py_DECREF.exit.i

17:                                               ; preds = %14
  tail call void @_Py_Dealloc(ptr noundef nonnull %9) #11
  br label %Py_DECREF.exit.i

Py_DECREF.exit.i:                                 ; preds = %17, %14, %11
  %18 = icmp eq ptr %12, null
  br i1 %18, label %_get_current_module.exit.thread, label %19

19:                                               ; preds = %Py_DECREF.exit.i
  %.not.i16 = icmp eq ptr %12, @_Py_NoneStruct
  br i1 %.not.i16, label %20, label %_get_current_module.exit

20:                                               ; preds = %19
  tail call void @__assert_fail(ptr noundef nonnull @.str.157, ptr noundef nonnull @.str.80, i32 noundef 57, ptr noundef nonnull @__PRETTY_FUNCTION__._get_current_module) #12
  unreachable

_get_current_module.exit.thread:                  ; preds = %Py_DECREF.exit.i, %_PyFrame_GetFunction.exit
  tail call void @__assert_fail(ptr noundef nonnull @.str.154, ptr noundef nonnull @.str.80, i32 noundef 651, ptr noundef nonnull @__PRETTY_FUNCTION__.record_eval) #12
  unreachable

_get_current_module.exit:                         ; preds = %19
  %21 = tail call ptr @PyModule_GetState(ptr noundef nonnull %12) #11
  %.not5.i = icmp eq ptr %21, null
  br i1 %.not5.i, label %22, label %get_module_state.exit

22:                                               ; preds = %_get_current_module.exit
  tail call void @__assert_fail(ptr noundef nonnull @.str.152, ptr noundef nonnull @.str.80, i32 noundef 73, ptr noundef nonnull @__PRETTY_FUNCTION__.get_module_state) #12
  unreachable

get_module_state.exit:                            ; preds = %_get_current_module.exit
  %23 = load i32, ptr %12, align 8, !tbaa !10
  %.not.i = icmp sgt i32 %23, -1
  br i1 %.not.i, label %24, label %Py_DECREF.exit

24:                                               ; preds = %get_module_state.exit
  %25 = add nsw i32 %23, -1
  store i32 %25, ptr %12, align 8, !tbaa !10
  %26 = icmp eq i32 %25, 0
  br i1 %26, label %27, label %Py_DECREF.exit

27:                                               ; preds = %24
  tail call void @_Py_Dealloc(ptr noundef nonnull %12) #11
  br label %Py_DECREF.exit

Py_DECREF.exit:                                   ; preds = %get_module_state.exit, %24, %27
  %28 = load ptr, ptr %21, align 8, !tbaa !3
  %29 = getelementptr inbounds nuw i8, ptr %6, i64 32
  %30 = load ptr, ptr %29, align 8, !tbaa !268
  %31 = tail call i32 @PyList_Append(ptr noundef %28, ptr noundef %30) #11
  %32 = icmp sgt i32 %31, -1
  br i1 %32, label %33, label %35

33:                                               ; preds = %Py_DECREF.exit, %3
  %34 = tail call ptr @_PyEval_EvalFrameDefault(ptr noundef %0, ptr noundef nonnull %1, i32 noundef %2) #11
  br label %35

35:                                               ; preds = %Py_DECREF.exit, %33
  %.1 = phi ptr [ null, %Py_DECREF.exit ], [ %34, %33 ]
  ret ptr %.1
}